; Function Attrs: mustprogress nounwind uwtable
define hidden void @_ZN14MacroAssembler6vandpdE11XMMRegisterS0_14AddressLiterali8Register(ptr noundef nonnull align 8 dereferenceable(40) %0, i32 %1, i32 %2, ptr noundef %3, i32 noundef %4, i32 %5) local_unnamed_addr #0 align 2 {
  %7 = alloca %class.Address, align 8
  %8 = alloca %class.Address, align 8
  %9 = alloca %class.AddressLiteral, align 8
  %10 = alloca %class.Address, align 8
  %11 = alloca %class.AddressLiteral, align 8
  %12 = alloca %class.AddressLiteral, align 8
  %13 = alloca %class.Address, align 8
  %14 = load ptr, ptr %3, align 8
  %15 = getelementptr inbounds i8, ptr %14, i64 16
  %16 = load ptr, ptr %15, align 8
  call void %16(ptr noundef nonnull align 8 dereferenceable(20) %3, ptr noundef nonnull align 8 dereferenceable(40) %9) #18
  %17 = getelementptr inbounds i8, ptr %9, i64 40
  %18 = getelementptr inbounds i8, ptr %3, i64 40
  call void @llvm.memcpy.p0.p0.i64(ptr noundef nonnull align 8 dereferenceable(16) %17, ptr noundef nonnull align 8 dereferenceable(16) %18, i64 16, i1 false)
  %19 = call noundef zeroext i1 @_ZN9Assembler9reachableE14AddressLiteral(ptr noundef nonnull align 8 dereferenceable(40) %0, ptr noundef nonnull %9) #18
  %20 = load ptr, ptr %3, align 8
  %21 = getelementptr inbounds i8, ptr %20, i64 16
  %22 = load ptr, ptr %21, align 8
  br i1 %19, label %23, label %42

23:                                               ; preds = %6
  call void %22(ptr noundef nonnull align 8 dereferenceable(20) %3, ptr noundef nonnull align 8 dereferenceable(40) %11) #18
  %24 = getelementptr inbounds i8, ptr %11, i64 40
  call void @llvm.memcpy.p0.p0.i64(ptr noundef nonnull align 8 dereferenceable(16) %24, ptr noundef nonnull align 8 dereferenceable(16) %18, i64 16, i1 false)
  %25 = getelementptr inbounds i8, ptr %11, i64 48
  %26 = load ptr, ptr %25, align 8, !noalias !283
  %27 = getelementptr inbounds i8, ptr %0, i64 8
  %28 = load ptr, ptr %27, align 8, !noalias !283
  %29 = getelementptr inbounds i8, ptr %28, i64 16
  %30 = load ptr, ptr %29, align 8, !noalias !283
  %31 = ptrtoint ptr %26 to i64
  %32 = ptrtoint ptr %30 to i64
  %33 = sub i64 %31, %32
  %34 = trunc i64 %33 to i32
  %35 = getelementptr inbounds i8, ptr %11, i64 16
  %36 = load i32, ptr %35, align 8, !noalias !283
  call void @_ZN7AddressC1EiPhN9relocInfo9relocTypeE(ptr noundef nonnull align 8 dereferenceable(64) %10, i32 noundef %34, ptr noundef %26, i32 noundef %36) #18
  call void @llvm.lifetime.start.p0(i64 64, ptr nonnull %8)
  call void @llvm.memcpy.p0.p0.i64(ptr noundef nonnull align 8 dereferenceable(21) %8, ptr noundef nonnull align 8 dereferenceable(21) %10, i64 21, i1 false)
  %37 = getelementptr inbounds i8, ptr %8, i64 24
  %38 = getelementptr inbounds i8, ptr %10, i64 24
  %39 = load ptr, ptr %38, align 8
  %40 = getelementptr inbounds i8, ptr %39, i64 16
  %41 = load ptr, ptr %40, align 8
  call void %41(ptr noundef nonnull align 8 dereferenceable(20) %38, ptr noundef nonnull align 8 dereferenceable(40) %37) #18
  call void @_ZN9Assembler6vandpdE11XMMRegisterS0_7Addressi(ptr noundef nonnull align 8 dereferenceable(40) %0, i32 %1, i32 %2, ptr noundef nonnull %8, i32 noundef %4) #18
  call void @llvm.lifetime.end.p0(i64 64, ptr nonnull %8)
  br label %54

42:                                               ; preds = %6
  call void %22(ptr noundef nonnull align 8 dereferenceable(20) %3, ptr noundef nonnull align 8 dereferenceable(40) %12) #18
  %43 = getelementptr inbounds i8, ptr %12, i64 40
  call void @llvm.memcpy.p0.p0.i64(ptr noundef nonnull align 8 dereferenceable(16) %43, ptr noundef nonnull align 8 dereferenceable(16) %18, i64 16, i1 false)
  %44 = getelementptr inbounds i8, ptr %12, i64 48
  %45 = load ptr, ptr %44, align 8
  %46 = ptrtoint ptr %45 to i64
  call void @_ZN9Assembler13mov_literal64E8RegisterlRK16RelocationHolder(ptr noundef nonnull align 8 dereferenceable(40) %0, i32 %5, i64 noundef %46, ptr noundef nonnull align 8 dereferenceable(40) %12) #18
  store i32 %5, ptr %13, align 8
  %47 = getelementptr inbounds i8, ptr %13, i64 4
  store <4 x i32> <i32 -1, i32 -1, i32 -1, i32 0>, ptr %47, align 4
  %48 = getelementptr inbounds i8, ptr %13, i64 20
  store i8 0, ptr %48, align 4
  %49 = getelementptr inbounds i8, ptr %13, i64 24
  store ptr getelementptr inbounds inrange(-16, 72) (i8, ptr @_ZTV10Relocation, i64 16), ptr %49, align 8
  %50 = getelementptr inbounds i8, ptr %13, i64 32
  store ptr null, ptr %50, align 8
  %51 = getelementptr inbounds i8, ptr %13, i64 40
  store i32 0, ptr %51, align 8
  call void @llvm.lifetime.start.p0(i64 64, ptr nonnull %7)
  call void @llvm.memcpy.p0.p0.i64(ptr noundef nonnull align 8 dereferenceable(21) %7, ptr noundef nonnull align 8 dereferenceable(21) %13, i64 21, i1 false)
  %52 = getelementptr inbounds i8, ptr %7, i64 24
  %53 = load ptr, ptr getelementptr inbounds inrange(-32, 56) (i8, ptr @_ZTV10Relocation, i64 32), align 8
  call void %53(ptr noundef nonnull align 8 dereferenceable(20) %49, ptr noundef nonnull align 8 dereferenceable(40) %52) #18
  call void @_ZN9Assembler6vandpdE11XMMRegisterS0_7Addressi(ptr noundef nonnull align 8 dereferenceable(40) %0, i32 %1, i32 %2, ptr noundef nonnull %7, i32 noundef %4) #18
  call void @llvm.lifetime.end.p0(i64 64, ptr nonnull %7)
  br label %54

54:                                               ; preds = %42, %23
  ret void
}